target datalayout = "e-m:e-p270:32:32-p271:32:32-p272:64:64-i64:64-i128:128-f80:128-n8:16:32:64-S128"
target triple = "x86_64-pc-linux-gnu"

%struct._zval_struct = type { %union._zend_value, %union.anon.9, %union.anon.12 }
%union._zend_value = type { i64 }
%union.anon.9 = type { i32 }
%union.anon.12 = type { i32 }
%struct._zend_refcounted_h = type { i32, %union.anon.0 }
%union.anon.0 = type { i32 }
%struct._php_libxml_ref_obj = type { ptr, ptr, %struct.php_libxml_cache_tag, i32, i8 }
%struct.php_libxml_cache_tag = type { i64 }
%struct._dom_object = type { ptr, ptr, ptr, %struct._zend_object }
%struct._zend_object = type { %struct._zend_refcounted_h, i32, ptr, ptr, ptr, [1 x %struct._zval_struct] }
%struct._dom_nnodemap_object = type { ptr, %struct._zval_struct, i32, i32, ptr, ptr, ptr, %struct.php_libxml_cache_tag, ptr, i32, i8 }
%struct._xmlDoc = type { ptr, i32, ptr, ptr, ptr, ptr, ptr, ptr, ptr, i32, i32, ptr, ptr, ptr, ptr, ptr, ptr, ptr, ptr, i32, ptr, ptr, i32, i32 }

; Function Attrs: nounwind uwtable
define hidden void @dom_namednode_iter(ptr noundef %0, i32 noundef %1, ptr noundef %2, ptr noundef %3, ptr noundef %4, i64 noundef %5, ptr noundef %6, i64 noundef %7) #0 {
  %9 = alloca ptr, align 8
  %10 = alloca ptr, align 8
  %11 = alloca i32, align 4
  %12 = alloca ptr, align 8
  %13 = alloca ptr, align 8
  %14 = alloca ptr, align 8
  %15 = alloca i64, align 8
  %16 = alloca ptr, align 8
  %17 = alloca i64, align 8
  %18 = alloca ptr, align 8
  %19 = alloca ptr, align 8
  %20 = alloca ptr, align 8
  %21 = alloca ptr, align 8
  %22 = alloca ptr, align 8
  %23 = alloca i32, align 4
  %24 = alloca i32, align 4
  store ptr %0, ptr %10, align 8
  store i32 %1, ptr %11, align 4
  store ptr %2, ptr %12, align 8
  store ptr %3, ptr %13, align 8
  store ptr %4, ptr %14, align 8
  store i64 %5, ptr %15, align 8
  store ptr %6, ptr %16, align 8
  store i64 %7, ptr %17, align 8
  %25 = load ptr, ptr %12, align 8
  %26 = getelementptr inbounds %struct._dom_object, ptr %25, i32 0, i32 0
  %27 = load ptr, ptr %26, align 8
  store ptr %27, ptr %18, align 8
  %28 = load ptr, ptr %10, align 8
  %29 = icmp ne ptr %28, null
  call void @llvm.assume(i1 %29)
  br label %30

30:                                               ; preds = %8
  %31 = load ptr, ptr %18, align 8
  %32 = getelementptr inbounds %struct._dom_nnodemap_object, ptr %31, i32 0, i32 1
  store ptr %32, ptr %19, align 8
  %33 = load ptr, ptr %10, align 8
  %34 = getelementptr inbounds %struct._dom_object, ptr %33, i32 0, i32 3
  store ptr %34, ptr %20, align 8
  %35 = load ptr, ptr %20, align 8
  %36 = getelementptr inbounds %struct._zend_object, ptr %35, i32 0, i32 0
  store ptr %36, ptr %9, align 8
  %37 = load ptr, ptr %9, align 8
  %38 = load i32, ptr %37, align 4
  %39 = add i32 %38, 1
  store i32 %39, ptr %37, align 4
  %40 = load ptr, ptr %20, align 8
  %41 = load ptr, ptr %19, align 8
  %42 = getelementptr inbounds %struct._zval_struct, ptr %41, i32 0, i32 0
  store ptr %40, ptr %42, align 8
  %43 = load ptr, ptr %19, align 8
  %44 = getelementptr inbounds %struct._zval_struct, ptr %43, i32 0, i32 1
  store i32 776, ptr %44, align 8
  br label %45

45:                                               ; preds = %30
  %46 = load ptr, ptr %10, align 8
  %47 = getelementptr inbounds %struct._dom_object, ptr %46, i32 0, i32 1
  %48 = load ptr, ptr %47, align 8
  %49 = icmp ne ptr %48, null
  br i1 %49, label %50, label %56

50:                                               ; preds = %45
  %51 = load ptr, ptr %10, align 8
  %52 = getelementptr inbounds %struct._dom_object, ptr %51, i32 0, i32 1
  %53 = load ptr, ptr %52, align 8
  %54 = getelementptr inbounds %struct._php_libxml_ref_obj, ptr %53, i32 0, i32 0
  %55 = load ptr, ptr %54, align 8
  br label %57

56:                                               ; preds = %45
  br label %57

57:                                               ; preds = %56, %50
  %58 = phi ptr [ %55, %50 ], [ null, %56 ]
  store ptr %58, ptr %21, align 8
  %59 = load ptr, ptr %10, align 8
  %60 = load ptr, ptr %18, align 8
  %61 = getelementptr inbounds %struct._dom_nnodemap_object, ptr %60, i32 0, i32 0
  store ptr %59, ptr %61, align 8
  %62 = load i32, ptr %11, align 4
  %63 = load ptr, ptr %18, align 8
  %64 = getelementptr inbounds %struct._dom_nnodemap_object, ptr %63, i32 0, i32 2
  store i32 %62, ptr %64, align 8
  %65 = load ptr, ptr %13, align 8
  %66 = load ptr, ptr %18, align 8
  %67 = getelementptr inbounds %struct._dom_nnodemap_object, ptr %66, i32 0, i32 4
  store ptr %65, ptr %67, align 8
  %68 = load ptr, ptr %14, align 8
  %69 = icmp ne ptr %68, null
  br i1 %69, label %70, label %105

70:                                               ; preds = %57
  %71 = load i64, ptr %15, align 8
  %72 = icmp ugt i64 %71, 2147483647
  br i1 %72, label %73, label %74

73:                                               ; preds = %70
  br label %77

74:                                               ; preds = %70
  %75 = load i64, ptr %15, align 8
  %76 = trunc i64 %75 to i32
  br label %77

77:                                               ; preds = %74, %73
  %78 = phi i32 [ -1, %73 ], [ %76, %74 ]
  store i32 %78, ptr %23, align 4
  %79 = load ptr, ptr %21, align 8
  %80 = icmp ne ptr %79, null
  br i1 %80, label %81, label %93

81:                                               ; preds = %77
  %82 = load ptr, ptr %21, align 8
  %83 = getelementptr inbounds %struct._xmlDoc, ptr %82, i32 0, i32 20
  %84 = load ptr, ptr %83, align 8
  %85 = load ptr, ptr %14, align 8
  %86 = load i32, ptr %23, align 4
  %87 = call ptr @xmlDictExists(ptr noundef %84, ptr noundef %85, i32 noundef %86)
  store ptr %87, ptr %22, align 8
  %88 = icmp ne ptr %87, null
  br i1 %88, label %89, label %93

89:                                               ; preds = %81
  %90 = load ptr, ptr %22, align 8
  %91 = load ptr, ptr %18, align 8
  %92 = getelementptr inbounds %struct._dom_nnodemap_object, ptr %91, i32 0, i32 5
  store ptr %90, ptr %92, align 8
  br label %104

93:                                               ; preds = %81, %77
  %94 = load ptr, ptr %14, align 8
  %95 = load i32, ptr %23, align 4
  %96 = call ptr @xmlCharStrndup(ptr noundef %94, i32 noundef %95)
  %97 = load ptr, ptr %18, align 8
  %98 = getelementptr inbounds %struct._dom_nnodemap_object, ptr %97, i32 0, i32 5
  store ptr %96, ptr %98, align 8
  %99 = load ptr, ptr %18, align 8
  %100 = getelementptr inbounds %struct._dom_nnodemap_object, ptr %99, i32 0, i32 10
  %101 = load i8, ptr %100, align 4
  %102 = and i8 %101, -2
  %103 = or i8 %102, 1
  store i8 %103, ptr %100, align 4
  br label %104

104:                                              ; preds = %93, %89
  br label %105

105:                                              ; preds = %104, %57
  %106 = load ptr, ptr %16, align 8
  %107 = icmp ne ptr %106, null
  br i1 %107, label %108, label %143

108:                                              ; preds = %105
  %109 = load i64, ptr %17, align 8
  %110 = icmp ugt i64 %109, 2147483647
  br i1 %110, label %111, label %112

111:                                              ; preds = %108
  br label %115

112:                                              ; preds = %108
  %113 = load i64, ptr %17, align 8
  %114 = trunc i64 %113 to i32
  br label %115

115:                                              ; preds = %112, %111
  %116 = phi i32 [ -1, %111 ], [ %114, %112 ]
  store i32 %116, ptr %24, align 4
  %117 = load ptr, ptr %21, align 8
  %118 = icmp ne ptr %117, null
  br i1 %118, label %119, label %131

119:                                              ; preds = %115
  %120 = load ptr, ptr %21, align 8
  %121 = getelementptr inbounds %struct._xmlDoc, ptr %120, i32 0, i32 20
  %122 = load ptr, ptr %121, align 8
  %123 = load ptr, ptr %16, align 8
  %124 = load i32, ptr %24, align 4
  %125 = call ptr @xmlDictExists(ptr noundef %122, ptr noundef %123, i32 noundef %124)
  store ptr %125, ptr %22, align 8
  %126 = icmp ne ptr %125, null
  br i1 %126, label %127, label %131

127:                                              ; preds = %119
  %128 = load ptr, ptr %22, align 8
  %129 = load ptr, ptr %18, align 8
  %130 = getelementptr inbounds %struct._dom_nnodemap_object, ptr %129, i32 0, i32 6
  store ptr %128, ptr %130, align 8
  br label %142

131:                                              ; preds = %119, %115
  %132 = load ptr, ptr %16, align 8
  %133 = load i32, ptr %24, align 4
  %134 = call ptr @xmlCharStrndup(ptr noundef %132, i32 noundef %133)
  %135 = load ptr, ptr %18, align 8
  %136 = getelementptr inbounds %struct._dom_nnodemap_object, ptr %135, i32 0, i32 6
  store ptr %134, ptr %136, align 8
  %137 = load ptr, ptr %18, align 8
  %138 = getelementptr inbounds %struct._dom_nnodemap_object, ptr %137, i32 0, i32 10
  %139 = load i8, ptr %138, align 4
  %140 = and i8 %139, -3
  %141 = or i8 %140, 2
  store i8 %141, ptr %138, align 4
  br label %142

142:                                              ; preds = %131, %127
  br label %143

143:                                              ; preds = %142, %105
  ret void
}