; Function Attrs: nounwind uwtable
define hidden void @dom_namednode_iter(ptr noundef %0, i32 noundef %1, ptr nocapture noundef readonly %2, ptr noundef %3, ptr noundef %4, i64 noundef %5, ptr noundef %6, i64 noundef %7) local_unnamed_addr #1 {
  %9 = load ptr, ptr %2, align 8
  %10 = icmp ne ptr %0, null
  tail call void @llvm.assume(i1 %10)
  %11 = getelementptr inbounds i8, ptr %9, i64 8
  %12 = getelementptr inbounds i8, ptr %0, i64 24
  %13 = load i32, ptr %12, align 4
  %14 = add i32 %13, 1
  store i32 %14, ptr %12, align 4
  store ptr %12, ptr %11, align 8
  %15 = getelementptr inbounds i8, ptr %9, i64 16
  store i32 776, ptr %15, align 8
  %16 = getelementptr inbounds i8, ptr %0, i64 8
  %17 = load ptr, ptr %16, align 8
  %.not = icmp eq ptr %17, null
  br i1 %.not, label %20, label %18

18:                                               ; preds = %8
  %19 = load ptr, ptr %17, align 8
  br label %20

20:                                               ; preds = %8, %18
  %21 = phi ptr [ %19, %18 ], [ null, %8 ]
  store ptr %0, ptr %9, align 8
  %22 = getelementptr inbounds i8, ptr %9, i64 24
  store i32 %1, ptr %22, align 8
  %23 = getelementptr inbounds i8, ptr %9, i64 32
  store ptr %3, ptr %23, align 8
  %.not47 = icmp eq ptr %4, null
  br i1 %.not47, label %40, label %24

24:                                               ; preds = %20
  %25 = icmp ugt i64 %5, 2147483647
  %26 = trunc i64 %5 to i32
  %27 = select i1 %25, i32 -1, i32 %26
  %.not48 = icmp eq ptr %21, null
  br i1 %.not48, label %34, label %28

28:                                               ; preds = %24
  %29 = getelementptr inbounds i8, ptr %21, i64 152
  %30 = load ptr, ptr %29, align 8
  %31 = tail call ptr @xmlDictExists(ptr noundef %30, ptr noundef nonnull %4, i32 noundef %27) #16
  %.not49 = icmp eq ptr %31, null
  br i1 %.not49, label %34, label %32

32:                                               ; preds = %28
  %33 = getelementptr inbounds i8, ptr %9, i64 40
  store ptr %31, ptr %33, align 8
  br label %40

34:                                               ; preds = %28, %24
  %35 = tail call ptr @xmlCharStrndup(ptr noundef nonnull %4, i32 noundef %27) #16
  %36 = getelementptr inbounds i8, ptr %9, i64 40
  store ptr %35, ptr %36, align 8
  %37 = getelementptr inbounds i8, ptr %9, i64 76
  %38 = load i8, ptr %37, align 4
  %39 = or i8 %38, 1
  store i8 %39, ptr %37, align 4
  br label %40

40:                                               ; preds = %32, %34, %20
  %.not50 = icmp eq ptr %6, null
  br i1 %.not50, label %57, label %41

41:                                               ; preds = %40
  %42 = icmp ugt i64 %7, 2147483647
  %43 = trunc i64 %7 to i32
  %44 = select i1 %42, i32 -1, i32 %43
  %.not51 = icmp eq ptr %21, null
  br i1 %.not51, label %51, label %45

45:                                               ; preds = %41
  %46 = getelementptr inbounds i8, ptr %21, i64 152
  %47 = load ptr, ptr %46, align 8
  %48 = tail call ptr @xmlDictExists(ptr noundef %47, ptr noundef nonnull %6, i32 noundef %44) #16
  %.not52 = icmp eq ptr %48, null
  br i1 %.not52, label %51, label %49

49:                                               ; preds = %45
  %50 = getelementptr inbounds i8, ptr %9, i64 48
  store ptr %48, ptr %50, align 8
  br label %57

51:                                               ; preds = %45, %41
  %52 = tail call ptr @xmlCharStrndup(ptr noundef nonnull %6, i32 noundef %44) #16
  %53 = getelementptr inbounds i8, ptr %9, i64 48
  store ptr %52, ptr %53, align 8
  %54 = getelementptr inbounds i8, ptr %9, i64 76
  %55 = load i8, ptr %54, align 4
  %56 = or i8 %55, 2
  store i8 %56, ptr %54, align 4
  br label %57

57:                                               ; preds = %49, %51, %40
  ret void
}